; Function Attrs: mustprogress nofree norecurse nounwind willreturn uwtable
define void @_ZNK19OpenColorIO_v2_5dev7Context16getConfigIOProxyEv(ptr dead_on_unwind noalias writable writeonly sret(%"class.std::shared_ptr.12") align 8 captures(none) initializes((0, 16)) %0, ptr noundef nonnull readonly align 8 captures(none) dereferenceable(8) %1) local_unnamed_addr #17 align 2 personality ptr @__gxx_personality_v0 {
  %3 = load ptr, ptr %1, align 8, !tbaa !61
  %4 = getelementptr inbounds nuw i8, ptr %3, i64 312
  %5 = load ptr, ptr %4, align 8, !tbaa !72
  store ptr %5, ptr %0, align 8, !tbaa !72
  %6 = getelementptr inbounds nuw i8, ptr %0, i64 8
  %7 = getelementptr inbounds nuw i8, ptr %3, i64 320
  %8 = load ptr, ptr %7, align 8, !tbaa !11
  store ptr %8, ptr %6, align 8, !tbaa !11
  %.not.i.i.i = icmp eq ptr %8, null
  br i1 %.not.i.i.i, label %_ZNSt10shared_ptrIN19OpenColorIO_v2_5dev13ConfigIOProxyEEC2ERKS2_.exit, label %9

9:                                                ; preds = %2
  %10 = getelementptr inbounds nuw i8, ptr %8, i64 8
  %11 = load i8, ptr @__libc_single_threaded, align 1, !tbaa !28
  %.not.i.i.i.i = icmp eq i8 %11, 0
  br i1 %.not.i.i.i.i, label %15, label %12

12:                                               ; preds = %9
  %13 = load i32, ptr %10, align 4, !tbaa !64
  %14 = add nsw i32 %13, 1
  store i32 %14, ptr %10, align 4, !tbaa !64
  br label %_ZNSt10shared_ptrIN19OpenColorIO_v2_5dev13ConfigIOProxyEEC2ERKS2_.exit

15:                                               ; preds = %9
  %16 = atomicrmw volatile add ptr %10, i32 1 acq_rel, align 4
  br label %_ZNSt10shared_ptrIN19OpenColorIO_v2_5dev13ConfigIOProxyEEC2ERKS2_.exit

_ZNSt10shared_ptrIN19OpenColorIO_v2_5dev13ConfigIOProxyEEC2ERKS2_.exit: ; preds = %2, %12, %15
  ret void
}